target datalayout = "e-m:e-p270:32:32-p271:32:32-p272:64:64-i64:64-i128:128-f80:128-n8:16:32:64-S128"
target triple = "x86_64-unknown-linux-gnu"

%struct.SharedEncoderDictionary = type { i32, %struct.CompoundDictionary, %struct.ContextualEncoderDictionary, i32 }
%struct.CompoundDictionary = type { i64, i64, [16 x ptr], [16 x ptr], [16 x i64], i64, [16 x ptr] }
%struct.ContextualEncoderDictionary = type { i32, i8, [64 x i8], [64 x ptr], i64, %struct.BrotliEncoderDictionary, ptr }
%struct.BrotliEncoderDictionary = type { ptr, i32, i32, i64, ptr, ptr, ptr, ptr, %struct.BrotliTrie, i32, ptr, ptr, ptr, i64, ptr, i64, ptr, ptr }
%struct.BrotliTrie = type { ptr, i64, i64, %struct.BrotliTrieNode }
%struct.BrotliTrieNode = type { i8, i8, i8, i32, i32 }
%struct.BrotliTransforms = type { i16, ptr, ptr, i32, ptr, ptr, [10 x i16] }

@kStaticDictionaryHashWords = external constant [32768 x i16], align 16
@kStaticDictionaryHashLengths = external constant [32768 x i8], align 16

; Function Attrs: nounwind uwtable
define internal void @BrotliTrieInit(ptr noundef %trie) #0 {
entry:
  %trie.addr = alloca ptr, align 8
  store ptr %trie, ptr %trie.addr, align 8
  %0 = load ptr, ptr %trie.addr, align 8
  %pool_capacity = getelementptr inbounds %struct.BrotliTrie, ptr %0, i32 0, i32 1
  store i64 0, ptr %pool_capacity, align 8
  %1 = load ptr, ptr %trie.addr, align 8
  %pool_size = getelementptr inbounds %struct.BrotliTrie, ptr %1, i32 0, i32 2
  store i64 0, ptr %pool_size, align 8
  %2 = load ptr, ptr %trie.addr, align 8
  %pool = getelementptr inbounds %struct.BrotliTrie, ptr %2, i32 0, i32 0
  store ptr null, ptr %pool, align 8
  %3 = load ptr, ptr %trie.addr, align 8
  %root = getelementptr inbounds %struct.BrotliTrie, ptr %3, i32 0, i32 3
  %single = getelementptr inbounds %struct.BrotliTrieNode, ptr %root, i32 0, i32 0
  store i8 0, ptr %single, align 8
  %4 = load ptr, ptr %trie.addr, align 8
  %root1 = getelementptr inbounds %struct.BrotliTrie, ptr %4, i32 0, i32 3
  %len_ = getelementptr inbounds %struct.BrotliTrieNode, ptr %root1, i32 0, i32 2
  store i8 0, ptr %len_, align 2
  %5 = load ptr, ptr %trie.addr, align 8
  %root2 = getelementptr inbounds %struct.BrotliTrie, ptr %5, i32 0, i32 3
  %idx_ = getelementptr inbounds %struct.BrotliTrieNode, ptr %root2, i32 0, i32 3
  store i32 0, ptr %idx_, align 4
  %6 = load ptr, ptr %trie.addr, align 8
  %root3 = getelementptr inbounds %struct.BrotliTrie, ptr %6, i32 0, i32 3
  %sub = getelementptr inbounds %struct.BrotliTrieNode, ptr %root3, i32 0, i32 4
  store i32 0, ptr %sub, align 8
  ret void
}

; Function Attrs: nounwind uwtable
define internal void @InitEncoderDictionary(ptr noundef %dict) #0 {
entry:
  %dict.addr = alloca ptr, align 8
  store ptr %dict, ptr %dict.addr, align 8
  %call = call ptr @BrotliGetDictionary()
  %0 = load ptr, ptr %dict.addr, align 8
  %words = getelementptr inbounds %struct.BrotliEncoderDictionary, ptr %0, i32 0, i32 0
  store ptr %call, ptr %words, align 8
  %call1 = call ptr @BrotliGetTransforms()
  %num_transforms = getelementptr inbounds %struct.BrotliTransforms, ptr %call1, i32 0, i32 3
  %1 = load i32, ptr %num_transforms, align 8
  %2 = load ptr, ptr %dict.addr, align 8
  %num_transforms2 = getelementptr inbounds %struct.BrotliEncoderDictionary, ptr %2, i32 0, i32 1
  store i32 %1, ptr %num_transforms2, align 8
  %3 = load ptr, ptr %dict.addr, align 8
  %hash_table_words = getelementptr inbounds %struct.BrotliEncoderDictionary, ptr %3, i32 0, i32 4
  store ptr @kStaticDictionaryHashWords, ptr %hash_table_words, align 8
  %4 = load ptr, ptr %dict.addr, align 8
  %hash_table_lengths = getelementptr inbounds %struct.BrotliEncoderDictionary, ptr %4, i32 0, i32 5
  store ptr @kStaticDictionaryHashLengths, ptr %hash_table_lengths, align 8
  %5 = load ptr, ptr %dict.addr, align 8
  %buckets = getelementptr inbounds %struct.BrotliEncoderDictionary, ptr %5, i32 0, i32 6
  store ptr @kStaticDictionaryBuckets, ptr %buckets, align 8
  %6 = load ptr, ptr %dict.addr, align 8
  %dict_words = getelementptr inbounds %struct.BrotliEncoderDictionary, ptr %6, i32 0, i32 7
  store ptr @kStaticDictionaryWords, ptr %dict_words, align 8
  %7 = load ptr, ptr %dict.addr, align 8
  %cutoffTransformsCount = getelementptr inbounds %struct.BrotliEncoderDictionary, ptr %7, i32 0, i32 2
  store i32 10, ptr %cutoffTransformsCount, align 4
  %8 = load ptr, ptr %dict.addr, align 8
  %cutoffTransforms = getelementptr inbounds %struct.BrotliEncoderDictionary, ptr %8, i32 0, i32 3
  store i64 512093189200228864, ptr %cutoffTransforms, align 8
  %9 = load ptr, ptr %dict.addr, align 8
  %parent = getelementptr inbounds %struct.BrotliEncoderDictionary, ptr %9, i32 0, i32 10
  store ptr null, ptr %parent, align 8
  %10 = load ptr, ptr %dict.addr, align 8
  %hash_table_data_words_ = getelementptr inbounds %struct.BrotliEncoderDictionary, ptr %10, i32 0, i32 11
  store ptr null, ptr %hash_table_data_words_, align 8
  %11 = load ptr, ptr %dict.addr, align 8
  %hash_table_data_lengths_ = getelementptr inbounds %struct.BrotliEncoderDictionary, ptr %11, i32 0, i32 12
  store ptr null, ptr %hash_table_data_lengths_, align 8
  %12 = load ptr, ptr %dict.addr, align 8
  %buckets_alloc_size_ = getelementptr inbounds %struct.BrotliEncoderDictionary, ptr %12, i32 0, i32 13
  store i64 0, ptr %buckets_alloc_size_, align 8
  %13 = load ptr, ptr %dict.addr, align 8
  %buckets_data_ = getelementptr inbounds %struct.BrotliEncoderDictionary, ptr %13, i32 0, i32 14
  store ptr null, ptr %buckets_data_, align 8
  %14 = load ptr, ptr %dict.addr, align 8
  %dict_words_alloc_size_ = getelementptr inbounds %struct.BrotliEncoderDictionary, ptr %14, i32 0, i32 15
  store i64 0, ptr %dict_words_alloc_size_, align 8
  %15 = load ptr, ptr %dict.addr, align 8
  %dict_words_data_ = getelementptr inbounds %struct.BrotliEncoderDictionary, ptr %15, i32 0, i32 16
  store ptr null, ptr %dict_words_data_, align 8
  %16 = load ptr, ptr %dict.addr, align 8
  %words_instance_ = getelementptr inbounds %struct.BrotliEncoderDictionary, ptr %16, i32 0, i32 17
  store ptr null, ptr %words_instance_, align 8
  %17 = load ptr, ptr %dict.addr, align 8
  %has_words_heavy = getelementptr inbounds %struct.BrotliEncoderDictionary, ptr %17, i32 0, i32 9
  store i32 0, ptr %has_words_heavy, align 8
  %18 = load ptr, ptr %dict.addr, align 8
  %trie = getelementptr inbounds %struct.BrotliEncoderDictionary, ptr %18, i32 0, i32 8
  call void @BrotliTrieInit(ptr noundef %trie)
  ret void
}

; Function Attrs: nounwind uwtable
define hidden void @BrotliInitSharedEncoderDictionary(ptr noundef %dict) #0 {
entry:
  %dict.addr = alloca ptr, align 8
  store ptr %dict, ptr %dict.addr, align 8
  %0 = load ptr, ptr %dict.addr, align 8
  %magic = getelementptr inbounds %struct.SharedEncoderDictionary, ptr %0, i32 0, i32 0
  store i32 -558043679, ptr %magic, align 8
  %1 = load ptr, ptr %dict.addr, align 8
  %compound = getelementptr inbounds %struct.SharedEncoderDictionary, ptr %1, i32 0, i32 1
  %num_chunks = getelementptr inbounds %struct.CompoundDictionary, ptr %compound, i32 0, i32 0
  store i64 0, ptr %num_chunks, align 8
  %2 = load ptr, ptr %dict.addr, align 8
  %compound1 = getelementptr inbounds %struct.SharedEncoderDictionary, ptr %2, i32 0, i32 1
  %total_size = getelementptr inbounds %struct.CompoundDictionary, ptr %compound1, i32 0, i32 1
  store i64 0, ptr %total_size, align 8
  %3 = load ptr, ptr %dict.addr, align 8
  %compound2 = getelementptr inbounds %struct.SharedEncoderDictionary, ptr %3, i32 0, i32 1
  %chunk_offsets = getelementptr inbounds %struct.CompoundDictionary, ptr %compound2, i32 0, i32 4
  %arrayidx = getelementptr inbounds [16 x i64], ptr %chunk_offsets, i64 0, i64 0
  store i64 0, ptr %arrayidx, align 8
  %4 = load ptr, ptr %dict.addr, align 8
  %compound3 = getelementptr inbounds %struct.SharedEncoderDictionary, ptr %4, i32 0, i32 1
  %num_prepared_instances_ = getelementptr inbounds %struct.CompoundDictionary, ptr %compound3, i32 0, i32 5
  store i64 0, ptr %num_prepared_instances_, align 8
  %5 = load ptr, ptr %dict.addr, align 8
  %contextual = getelementptr inbounds %struct.SharedEncoderDictionary, ptr %5, i32 0, i32 2
  %context_based = getelementptr inbounds %struct.ContextualEncoderDictionary, ptr %contextual, i32 0, i32 0
  store i32 0, ptr %context_based, align 8
  %6 = load ptr, ptr %dict.addr, align 8
  %contextual4 = getelementptr inbounds %struct.SharedEncoderDictionary, ptr %6, i32 0, i32 2
  %num_dictionaries = getelementptr inbounds %struct.ContextualEncoderDictionary, ptr %contextual4, i32 0, i32 1
  store i8 1, ptr %num_dictionaries, align 4
  %7 = load ptr, ptr %dict.addr, align 8
  %contextual5 = getelementptr inbounds %struct.SharedEncoderDictionary, ptr %7, i32 0, i32 2
  %instances_ = getelementptr inbounds %struct.ContextualEncoderDictionary, ptr %contextual5, i32 0, i32 6
  store ptr null, ptr %instances_, align 8
  %8 = load ptr, ptr %dict.addr, align 8
  %contextual6 = getelementptr inbounds %struct.SharedEncoderDictionary, ptr %8, i32 0, i32 2
  %num_instances_ = getelementptr inbounds %struct.ContextualEncoderDictionary, ptr %contextual6, i32 0, i32 4
  store i64 1, ptr %num_instances_, align 8
  %9 = load ptr, ptr %dict.addr, align 8
  %contextual7 = getelementptr inbounds %struct.SharedEncoderDictionary, ptr %9, i32 0, i32 2
  %instance_ = getelementptr inbounds %struct.ContextualEncoderDictionary, ptr %contextual7, i32 0, i32 5
  %10 = load ptr, ptr %dict.addr, align 8
  %contextual8 = getelementptr inbounds %struct.SharedEncoderDictionary, ptr %10, i32 0, i32 2
  %dict9 = getelementptr inbounds %struct.ContextualEncoderDictionary, ptr %contextual8, i32 0, i32 3
  %arrayidx10 = getelementptr inbounds [64 x ptr], ptr %dict9, i64 0, i64 0
  store ptr %instance_, ptr %arrayidx10, align 8
  %11 = load ptr, ptr %dict.addr, align 8
  %contextual11 = getelementptr inbounds %struct.SharedEncoderDictionary, ptr %11, i32 0, i32 2
  %instance_12 = getelementptr inbounds %struct.ContextualEncoderDictionary, ptr %contextual11, i32 0, i32 5
  call void @InitEncoderDictionary(ptr noundef %instance_12)
  %12 = load ptr, ptr %dict.addr, align 8
  %contextual13 = getelementptr inbounds %struct.SharedEncoderDictionary, ptr %12, i32 0, i32 2
  %13 = load ptr, ptr %dict.addr, align 8
  %contextual14 = getelementptr inbounds %struct.SharedEncoderDictionary, ptr %13, i32 0, i32 2
  %instance_15 = getelementptr inbounds %struct.ContextualEncoderDictionary, ptr %contextual14, i32 0, i32 5
  %parent = getelementptr inbounds %struct.BrotliEncoderDictionary, ptr %instance_15, i32 0, i32 10
  store ptr %contextual13, ptr %parent, align 8
  %14 = load ptr, ptr %dict.addr, align 8
  %max_quality = getelementptr inbounds %struct.SharedEncoderDictionary, ptr %14, i32 0, i32 3
  store i32 11, ptr %max_quality, align 8
  ret void
}