; Function Attrs: nounwind uwtable
define hidden void @BrotliInitSharedEncoderDictionary(ptr noundef initializes((0, 4), (8, 24), (280, 288), (408, 416), (544, 549), (1128, 1136), (1304, 1312)) %dict) local_unnamed_addr #0 {
entry:
  store i32 -558043679, ptr %dict, align 8
  %compound = getelementptr inbounds nuw i8, ptr %dict, i64 8
  %chunk_offsets = getelementptr inbounds nuw i8, ptr %dict, i64 280
  store i64 0, ptr %chunk_offsets, align 8
  %num_prepared_instances_ = getelementptr inbounds nuw i8, ptr %dict, i64 408
  store i64 0, ptr %num_prepared_instances_, align 8
  %contextual = getelementptr inbounds nuw i8, ptr %dict, i64 544
  store i32 0, ptr %contextual, align 8
  %num_dictionaries = getelementptr inbounds nuw i8, ptr %dict, i64 548
  tail call void @llvm.memset.p0.i64(ptr noundef nonnull align 8 dereferenceable(16) %compound, i8 0, i64 16, i1 false)
  store i8 1, ptr %num_dictionaries, align 4
  %instances_ = getelementptr inbounds nuw i8, ptr %dict, i64 1304
  store ptr null, ptr %instances_, align 8
  %num_instances_ = getelementptr inbounds nuw i8, ptr %dict, i64 1128
  store i64 1, ptr %num_instances_, align 8
  %instance_ = getelementptr inbounds nuw i8, ptr %dict, i64 1136
  %dict9 = getelementptr inbounds nuw i8, ptr %dict, i64 616
  store ptr %instance_, ptr %dict9, align 8
  %call.i = tail call ptr @BrotliGetDictionary() #3
  store ptr %call.i, ptr %instance_, align 8
  %call1.i = tail call ptr @BrotliGetTransforms() #3
  %num_transforms.i = getelementptr inbounds nuw i8, ptr %call1.i, i64 24
  %0 = load i32, ptr %num_transforms.i, align 8
  %num_transforms2.i = getelementptr inbounds nuw i8, ptr %dict, i64 1144
  store i32 %0, ptr %num_transforms2.i, align 8
  %hash_table_words.i = getelementptr inbounds nuw i8, ptr %dict, i64 1160
  store ptr @kStaticDictionaryHashWords, ptr %hash_table_words.i, align 8
  %hash_table_lengths.i = getelementptr inbounds nuw i8, ptr %dict, i64 1168
  store ptr @kStaticDictionaryHashLengths, ptr %hash_table_lengths.i, align 8
  %buckets.i = getelementptr inbounds nuw i8, ptr %dict, i64 1176
  store ptr @kStaticDictionaryBuckets, ptr %buckets.i, align 8
  %dict_words.i = getelementptr inbounds nuw i8, ptr %dict, i64 1184
  store ptr @kStaticDictionaryWords, ptr %dict_words.i, align 8
  %cutoffTransformsCount.i = getelementptr inbounds nuw i8, ptr %dict, i64 1148
  store i32 10, ptr %cutoffTransformsCount.i, align 4
  %cutoffTransforms.i = getelementptr inbounds nuw i8, ptr %dict, i64 1152
  store i64 512093189200228864, ptr %cutoffTransforms.i, align 8
  %parent.i = getelementptr inbounds nuw i8, ptr %dict, i64 1240
  %has_words_heavy.i = getelementptr inbounds nuw i8, ptr %dict, i64 1232
  store i32 0, ptr %has_words_heavy.i, align 8
  %trie.i = getelementptr inbounds nuw i8, ptr %dict, i64 1192
  %len_.i.i = getelementptr inbounds nuw i8, ptr %dict, i64 1218
  store i8 0, ptr %len_.i.i, align 2
  %idx_.i.i = getelementptr inbounds nuw i8, ptr %dict, i64 1220
  store i32 0, ptr %idx_.i.i, align 4
  %sub.i.i = getelementptr inbounds nuw i8, ptr %dict, i64 1224
  store i32 0, ptr %sub.i.i, align 8
  tail call void @llvm.memset.p0.i64(ptr noundef nonnull align 8 dereferenceable(25) %trie.i, i8 0, i64 25, i1 false)
  %1 = getelementptr inbounds nuw i8, ptr %dict, i64 1248
  tail call void @llvm.memset.p0.i64(ptr noundef nonnull align 8 dereferenceable(64) %1, i8 0, i64 56, i1 false)
  store ptr %contextual, ptr %parent.i, align 8
  %max_quality = getelementptr inbounds nuw i8, ptr %dict, i64 1312
  store i32 11, ptr %max_quality, align 8
  ret void
}